target datalayout = "e-m:e-p270:32:32-p271:32:32-p272:64:64-i64:64-i128:128-f80:128-n8:16:32:64-S128"
target triple = "x86_64-pc-linux-gnu"

%struct.strbuf = type { i64, i64, ptr }
%struct.object_id = type { [32 x i8], i32 }
%struct.oid_array = type { ptr, i64, i64, i32 }

@.str.46 = private unnamed_addr constant [27 x i8] c"size_t overflow: %lu * %lu\00", align 1

; Function Attrs: inlinehint nounwind uwtable
define internal i64 @st_mult(i64 noundef %0, i64 noundef %1) #5 {
  %3 = alloca i64, align 8
  %4 = alloca i64, align 8
  store i64 %0, ptr %3, align 8, !tbaa !84
  store i64 %1, ptr %4, align 8, !tbaa !84
  %5 = load i64, ptr %3, align 8, !tbaa !84
  %6 = icmp ne i64 %5, 0
  br i1 %6, label %7, label %15

7:                                                ; preds = %2
  %8 = load i64, ptr %4, align 8, !tbaa !84
  %9 = load i64, ptr %3, align 8, !tbaa !84
  %10 = udiv i64 -1, %9
  %11 = icmp ugt i64 %8, %10
  br i1 %11, label %12, label %15

12:                                               ; preds = %7
  %13 = load i64, ptr %3, align 8, !tbaa !84
  %14 = load i64, ptr %4, align 8, !tbaa !84
  call void (ptr, ...) @die(ptr noundef @.str.46, i64 noundef %13, i64 noundef %14) #10
  unreachable

15:                                               ; preds = %7, %2
  %16 = load i64, ptr %3, align 8, !tbaa !84
  %17 = load i64, ptr %4, align 8, !tbaa !84
  %18 = mul i64 %16, %17
  ret i64 %18
}

; Function Attrs: nounwind uwtable
define internal ptr @find_paths_multitree(ptr noundef %0, ptr noundef %1, ptr noundef %2) #0 {
  %4 = alloca ptr, align 8
  %5 = alloca ptr, align 8
  %6 = alloca ptr, align 8
  %7 = alloca i32, align 4
  %8 = alloca i32, align 4
  %9 = alloca ptr, align 8
  %10 = alloca ptr, align 8
  %11 = alloca %struct.strbuf, align 8
  store ptr %0, ptr %4, align 8, !tbaa !146
  store ptr %1, ptr %5, align 8, !tbaa !147
  store ptr %2, ptr %6, align 8, !tbaa !13
  call void @llvm.lifetime.start.p0(i64 4, ptr %7) #9
  call void @llvm.lifetime.start.p0(i64 4, ptr %8) #9
  %12 = load ptr, ptr %5, align 8, !tbaa !147
  %13 = getelementptr inbounds nuw %struct.oid_array, ptr %12, i32 0, i32 1
  %14 = load i64, ptr %13, align 8, !tbaa !149
  %15 = trunc i64 %14 to i32
  store i32 %15, ptr %8, align 4, !tbaa !9
  call void @llvm.lifetime.start.p0(i64 8, ptr %9) #9
  call void @llvm.lifetime.start.p0(i64 8, ptr %10) #9
  call void @llvm.lifetime.start.p0(i64 24, ptr %11) #9
  %16 = load i32, ptr %8, align 4, !tbaa !9
  %17 = sext i32 %16 to i64
  %18 = call i64 @st_mult(i64 noundef 8, i64 noundef %17)
  %19 = call ptr @xmalloc(i64 noundef %18)
  store ptr %19, ptr %9, align 8, !tbaa !184
  store i32 0, ptr %7, align 4, !tbaa !9
  br label %20

20:                                               ; preds = %35, %3
  %21 = load i32, ptr %7, align 4, !tbaa !9
  %22 = load i32, ptr %8, align 4, !tbaa !9
  %23 = icmp slt i32 %21, %22
  br i1 %23, label %24, label %38

24:                                               ; preds = %20
  %25 = load ptr, ptr %5, align 8, !tbaa !147
  %26 = getelementptr inbounds nuw %struct.oid_array, ptr %25, i32 0, i32 0
  %27 = load ptr, ptr %26, align 8, !tbaa !170
  %28 = load i32, ptr %7, align 4, !tbaa !9
  %29 = sext i32 %28 to i64
  %30 = getelementptr inbounds %struct.object_id, ptr %27, i64 %29
  %31 = load ptr, ptr %9, align 8, !tbaa !184
  %32 = load i32, ptr %7, align 4, !tbaa !9
  %33 = sext i32 %32 to i64
  %34 = getelementptr inbounds ptr, ptr %31, i64 %33
  store ptr %30, ptr %34, align 8, !tbaa !146
  br label %35

35:                                               ; preds = %24
  %36 = load i32, ptr %7, align 4, !tbaa !9
  %37 = add nsw i32 %36, 1
  store i32 %37, ptr %7, align 4, !tbaa !9
  br label %20, !llvm.loop !186

38:                                               ; preds = %20
  call void @strbuf_init(ptr noundef %11, i64 noundef 4096)
  %39 = load ptr, ptr %4, align 8, !tbaa !146
  %40 = load ptr, ptr %9, align 8, !tbaa !184
  %41 = load i32, ptr %8, align 4, !tbaa !9
  %42 = load ptr, ptr %6, align 8, !tbaa !13
  %43 = call ptr @diff_tree_paths(ptr noundef %39, ptr noundef %40, i32 noundef %41, ptr noundef %11, ptr noundef %42)
  store ptr %43, ptr %10, align 8, !tbaa !4
  call void @strbuf_release(ptr noundef %11)
  %44 = load ptr, ptr %9, align 8, !tbaa !184
  call void @free(ptr noundef %44) #9
  %45 = load ptr, ptr %10, align 8, !tbaa !4
  call void @llvm.lifetime.end.p0(i64 24, ptr %11) #9
  call void @llvm.lifetime.end.p0(i64 8, ptr %10) #9
  call void @llvm.lifetime.end.p0(i64 8, ptr %9) #9
  call void @llvm.lifetime.end.p0(i64 4, ptr %8) #9
  call void @llvm.lifetime.end.p0(i64 4, ptr %7) #9
  ret ptr %45
}