; Function Attrs: nounwind uwtable
define internal fastcc ptr @find_paths_multitree(ptr noundef %0, ptr noundef readonly captures(none) %1, ptr noundef nonnull %2) unnamed_addr #0 {
  %4 = alloca %struct.strbuf, align 8
  %5 = getelementptr inbounds nuw i8, ptr %1, i64 8
  %6 = load i64, ptr %5, align 8, !tbaa !190
  %7 = trunc i64 %6 to i32
  call void @llvm.lifetime.start.p0(i64 24, ptr nonnull %4) #15
  %sext = shl i64 %6, 32
  %8 = ashr exact i64 %sext, 32
  %mul.ov.i = icmp ugt i64 %8, 2305843009213693951
  br i1 %mul.ov.i, label %9, label %st_mult.exit

9:                                                ; preds = %3
  tail call void (ptr, ...) @die(ptr noundef nonnull @.str.46, i64 noundef 8, i64 noundef %8) #16
  unreachable

st_mult.exit:                                     ; preds = %3
  %10 = ashr exact i64 %sext, 29
  %11 = tail call ptr @xmalloc(i64 noundef %10) #15
  %12 = icmp sgt i32 %7, 0
  br i1 %12, label %.lr.ph.preheader, label %._crit_edge

.lr.ph.preheader:                                 ; preds = %st_mult.exit
  %wide.trip.count = and i64 %6, 2147483647
  br label %.lr.ph

.lr.ph:                                           ; preds = %.lr.ph.preheader, %.lr.ph
  %indvars.iv = phi i64 [ 0, %.lr.ph.preheader ], [ %indvars.iv.next, %.lr.ph ]
  %13 = load ptr, ptr %1, align 8, !tbaa !211
  %14 = getelementptr inbounds nuw %struct.object_id, ptr %13, i64 %indvars.iv
  %15 = getelementptr inbounds nuw ptr, ptr %11, i64 %indvars.iv
  store ptr %14, ptr %15, align 8, !tbaa !250
  %indvars.iv.next = add nuw nsw i64 %indvars.iv, 1
  %exitcond.not = icmp eq i64 %indvars.iv.next, %wide.trip.count
  br i1 %exitcond.not, label %._crit_edge, label %.lr.ph, !llvm.loop !251

._crit_edge:                                      ; preds = %.lr.ph, %st_mult.exit
  call void @strbuf_init(ptr noundef nonnull %4, i64 noundef 4096) #15
  %16 = call ptr @diff_tree_paths(ptr noundef %0, ptr noundef %11, i32 noundef %7, ptr noundef nonnull %4, ptr noundef nonnull %2) #15
  call void @strbuf_release(ptr noundef nonnull %4) #15
  call void @free(ptr noundef %11) #15
  call void @llvm.lifetime.end.p0(i64 24, ptr nonnull %4) #15
  ret ptr %16
}